target datalayout = "e-m:e-p270:32:32-p271:32:32-p272:64:64-i64:64-i128:128-f80:128-n8:16:32:64-S128"
target triple = "x86_64-pc-linux-gnu"

%"class.libunwind::LocalAddressSpace" = type { i8 }
%"struct.libunwind::CFI_Parser<libunwind::LocalAddressSpace>::FDE_Info" = type { i64, i64, i64, i64, i64, i64 }
%"struct.libunwind::CFI_Parser<libunwind::LocalAddressSpace>::CIE_Info" = type { i64, i64, i64, i8, i8, i8, i8, i64, i32, i32, i8, i8, i8 }

@_ZN9libunwind17LocalAddressSpace17sThisAddressSpaceE = hidden global %"class.libunwind::LocalAddressSpace" zeroinitializer, align 1
@stderr = external global ptr, align 8
@.str.14 = private unnamed_addr constant [47 x i8] c"libunwind: __unw_add_dynamic_fde: bad fde: %s\0A\00", align 1

; Function Attrs: mustprogress nounwind uwtable
define dso_local void @__unw_add_dynamic_fde(i64 noundef %0) #0 {
  %2 = alloca i64, align 8
  %3 = alloca %"struct.libunwind::CFI_Parser<libunwind::LocalAddressSpace>::FDE_Info", align 8
  %4 = alloca %"struct.libunwind::CFI_Parser<libunwind::LocalAddressSpace>::CIE_Info", align 8
  %5 = alloca ptr, align 8
  %6 = alloca i64, align 8
  store i64 %0, ptr %2, align 8, !tbaa !23
  call void @llvm.lifetime.start.p0(i64 48, ptr %3) #9
  call void @llvm.lifetime.start.p0(i64 56, ptr %4) #9
  call void @llvm.lifetime.start.p0(i64 8, ptr %5) #9
  %7 = load i64, ptr %2, align 8, !tbaa !23
  %8 = call noundef ptr @_ZN9libunwind10CFI_ParserINS_17LocalAddressSpaceEE9decodeFDEERS1_mPNS2_8FDE_InfoEPNS2_8CIE_InfoEb(ptr noundef nonnull align 1 dereferenceable(1) @_ZN9libunwind17LocalAddressSpace17sThisAddressSpaceE, i64 noundef %7, ptr noundef %3, ptr noundef %4, i1 noundef zeroext false)
  store ptr %8, ptr %5, align 8, !tbaa !48
  %9 = load ptr, ptr %5, align 8, !tbaa !48
  %10 = icmp eq ptr %9, null
  br i1 %10, label %11, label %21

11:                                               ; preds = %1
  call void @llvm.lifetime.start.p0(i64 8, ptr %6) #9
  %12 = getelementptr inbounds nuw %"struct.libunwind::CFI_Parser<libunwind::LocalAddressSpace>::FDE_Info", ptr %3, i32 0, i32 0
  %13 = load i64, ptr %12, align 8, !tbaa !60
  store i64 %13, ptr %6, align 8, !tbaa !23
  %14 = load i64, ptr %6, align 8, !tbaa !23
  %15 = getelementptr inbounds nuw %"struct.libunwind::CFI_Parser<libunwind::LocalAddressSpace>::FDE_Info", ptr %3, i32 0, i32 3
  %16 = load i64, ptr %15, align 8, !tbaa !62
  %17 = getelementptr inbounds nuw %"struct.libunwind::CFI_Parser<libunwind::LocalAddressSpace>::FDE_Info", ptr %3, i32 0, i32 4
  %18 = load i64, ptr %17, align 8, !tbaa !63
  %19 = getelementptr inbounds nuw %"struct.libunwind::CFI_Parser<libunwind::LocalAddressSpace>::FDE_Info", ptr %3, i32 0, i32 0
  %20 = load i64, ptr %19, align 8, !tbaa !60
  call void @_ZN9libunwind13DwarfFDECacheINS_17LocalAddressSpaceEE3addEmmmm(i64 noundef %14, i64 noundef %16, i64 noundef %18, i64 noundef %20)
  call void @llvm.lifetime.end.p0(i64 8, ptr %6) #9
  br label %30

21:                                               ; preds = %1
  br label %22

22:                                               ; preds = %21
  %23 = load ptr, ptr @stderr, align 8, !tbaa !13
  %24 = load ptr, ptr %5, align 8, !tbaa !48
  %25 = call i32 (ptr, ptr, ...) @fprintf(ptr noundef %23, ptr noundef @.str.14, ptr noundef %24) #9
  %26 = load ptr, ptr @stderr, align 8, !tbaa !13
  %27 = call i32 @fflush(ptr noundef %26)
  br label %28

28:                                               ; preds = %22
  br label %29

29:                                               ; preds = %28
  br label %30

30:                                               ; preds = %29, %11
  call void @llvm.lifetime.end.p0(i64 8, ptr %5) #9
  call void @llvm.lifetime.end.p0(i64 56, ptr %4) #9
  call void @llvm.lifetime.end.p0(i64 48, ptr %3) #9
  ret void
}