; Function Attrs: mustprogress nounwind uwtable
define dso_local void @__unw_add_dynamic_fde(i64 noundef %0) local_unnamed_addr #0 {
  %2 = alloca %"struct.libunwind::CFI_Parser<libunwind::LocalAddressSpace>::FDE_Info", align 8
  %3 = alloca %"struct.libunwind::CFI_Parser<libunwind::LocalAddressSpace>::CIE_Info", align 8
  call void @llvm.lifetime.start.p0(i64 48, ptr nonnull %2) #15
  call void @llvm.lifetime.start.p0(i64 56, ptr nonnull %3) #15
  %4 = call noundef ptr @_ZN9libunwind10CFI_ParserINS_17LocalAddressSpaceEE9decodeFDEERS1_mPNS2_8FDE_InfoEPNS2_8CIE_InfoEb(ptr noundef nonnull align 1 dereferenceable(1) @_ZN9libunwind17LocalAddressSpace17sThisAddressSpaceE, i64 noundef %0, ptr noundef nonnull %2, ptr noundef nonnull %3, i1 noundef zeroext false)
  %5 = icmp eq ptr %4, null
  br i1 %5, label %6, label %12

6:                                                ; preds = %1
  %7 = load i64, ptr %2, align 8, !tbaa !35
  %8 = getelementptr inbounds nuw i8, ptr %2, i64 24
  %9 = load i64, ptr %8, align 8, !tbaa !37
  %10 = getelementptr inbounds nuw i8, ptr %2, i64 32
  %11 = load i64, ptr %10, align 8, !tbaa !38
  call void @_ZN9libunwind13DwarfFDECacheINS_17LocalAddressSpaceEE3addEmmmm(i64 noundef %7, i64 noundef %9, i64 noundef %11, i64 noundef %7)
  br label %17

12:                                               ; preds = %1
  %13 = load ptr, ptr @stderr, align 8, !tbaa !11
  %14 = call i32 (ptr, ptr, ...) @fprintf(ptr noundef %13, ptr noundef nonnull @.str.14, ptr noundef nonnull %4) #16
  %15 = load ptr, ptr @stderr, align 8, !tbaa !11
  %16 = call i32 @fflush(ptr noundef %15)
  br label %17

17:                                               ; preds = %12, %6
  call void @llvm.lifetime.end.p0(i64 56, ptr nonnull %3) #15
  call void @llvm.lifetime.end.p0(i64 48, ptr nonnull %2) #15
  ret void
}